target datalayout = "e-m:e-p270:32:32-p271:32:32-p272:64:64-i64:64-i128:128-f80:128-n8:16:32:64-S128"
target triple = "x86_64-pc-linux-gnu"

@.str = private unnamed_addr constant [35 x i8] c"../openssl/test/cipherbytes_test.c\00", align 1
@.str.1 = private unnamed_addr constant [39 x i8] c"ctx = SSL_CTX_new(TLS_server_method())\00", align 1
@ctx = internal global ptr null, align 8
@.str.2 = private unnamed_addr constant [17 x i8] c"s = SSL_new(ctx)\00", align 1
@s = internal global ptr null, align 8
@.str.3 = private unnamed_addr constant [11 x i8] c"test_empty\00", align 1
@.str.4 = private unnamed_addr constant [17 x i8] c"test_unsupported\00", align 1
@.str.5 = private unnamed_addr constant [8 x i8] c"test_v2\00", align 1
@.str.6 = private unnamed_addr constant [8 x i8] c"test_v3\00", align 1

; Function Attrs: nounwind uwtable
define dso_local i32 @setup_tests() #0 {
  %1 = alloca i32, align 4
  %2 = call ptr @TLS_server_method()
  %3 = call ptr @SSL_CTX_new(ptr noundef %2)
  store ptr %3, ptr @ctx, align 8, !tbaa !4
  %4 = call i32 @test_ptr(ptr noundef @.str, i32 noundef 134, ptr noundef @.str.1, ptr noundef %3)
  %5 = icmp ne i32 %4, 0
  br i1 %5, label %6, label %11

6:                                                ; preds = %0
  %7 = load ptr, ptr @ctx, align 8, !tbaa !4
  %8 = call ptr @SSL_new(ptr noundef %7)
  store ptr %8, ptr @s, align 8, !tbaa !9
  %9 = call i32 @test_ptr(ptr noundef @.str, i32 noundef 135, ptr noundef @.str.2, ptr noundef %8)
  %10 = icmp ne i32 %9, 0
  br i1 %10, label %12, label %11

11:                                               ; preds = %6, %0
  store i32 0, ptr %1, align 4
  br label %13

12:                                               ; preds = %6
  call void @add_test(ptr noundef @.str.3, ptr noundef @test_empty)
  call void @add_test(ptr noundef @.str.4, ptr noundef @test_unsupported)
  call void @add_test(ptr noundef @.str.5, ptr noundef @test_v2)
  call void @add_test(ptr noundef @.str.6, ptr noundef @test_v3)
  store i32 1, ptr %1, align 4
  br label %13

13:                                               ; preds = %12, %11
  %14 = load i32, ptr %1, align 4
  ret i32 %14
}