; Function Attrs: nounwind uwtable
define dso_local range(i32 0, 2) i32 @setup_tests() local_unnamed_addr #0 {
  %1 = tail call ptr @TLS_server_method() #5
  %2 = tail call ptr @SSL_CTX_new(ptr noundef %1) #5
  store ptr %2, ptr @ctx, align 8, !tbaa !4
  %3 = tail call i32 @test_ptr(ptr noundef nonnull @.str, i32 noundef 134, ptr noundef nonnull @.str.1, ptr noundef %2) #5
  %.not = icmp eq i32 %3, 0
  br i1 %.not, label %9, label %4

4:                                                ; preds = %0
  %5 = load ptr, ptr @ctx, align 8, !tbaa !4
  %6 = tail call ptr @SSL_new(ptr noundef %5) #5
  store ptr %6, ptr @s, align 8, !tbaa !9
  %7 = tail call i32 @test_ptr(ptr noundef nonnull @.str, i32 noundef 135, ptr noundef nonnull @.str.2, ptr noundef %6) #5
  %.not1 = icmp eq i32 %7, 0
  br i1 %.not1, label %9, label %8

8:                                                ; preds = %4
  tail call void @add_test(ptr noundef nonnull @.str.3, ptr noundef nonnull @test_empty) #5
  tail call void @add_test(ptr noundef nonnull @.str.4, ptr noundef nonnull @test_unsupported) #5
  tail call void @add_test(ptr noundef nonnull @.str.5, ptr noundef nonnull @test_v2) #5
  tail call void @add_test(ptr noundef nonnull @.str.6, ptr noundef nonnull @test_v3) #5
  br label %9

9:                                                ; preds = %0, %4, %8
  %.0 = phi i32 [ 1, %8 ], [ 0, %4 ], [ 0, %0 ]
  ret i32 %.0
}